; Function Attrs: mustprogress uwtable
define hidden void @_ZN5zxing24GlobalHistogramBinarizer14getBlackMatrixERNS_12ErrorHandlerE(ptr dead_on_unwind noalias writable sret(%"class.zxing::Ref.0") align 8 %0, ptr noundef nonnull align 8 dereferenceable(121) %1, ptr noundef nonnull align 8 dereferenceable(48) %2) unnamed_addr #2 align 2 {
  %4 = tail call noundef i32 @_ZN5zxing24GlobalHistogramBinarizer14binarizeImage0ERNS_12ErrorHandlerE(ptr noundef nonnull align 8 dereferenceable(121) %1, ptr noundef nonnull align 8 dereferenceable(48) %2)
  %5 = load ptr, ptr %2, align 8, !tbaa !3
  %6 = getelementptr inbounds nuw i8, ptr %5, i64 16
  %7 = load ptr, ptr %6, align 8
  %8 = tail call noundef i32 %7(ptr noundef nonnull align 8 dereferenceable(48) %2)
  %.not = icmp eq i32 %8, 0
  br i1 %.not, label %10, label %9

9:                                                ; preds = %3
  store ptr null, ptr %0, align 8, !tbaa !37
  br label %11

10:                                               ; preds = %3
  tail call void @_ZN5zxing9Binarizer14getBlackMatrixERNS_12ErrorHandlerE(ptr dead_on_unwind writable sret(%"class.zxing::Ref.0") align 8 %0, ptr noundef nonnull align 8 dereferenceable(72) %1, ptr noundef nonnull align 8 dereferenceable(48) %2)
  br label %11

11:                                               ; preds = %10, %9
  ret void
}